; Function Attrs: mustprogress nofree norecurse nosync nounwind willreturn memory(read, inaccessiblemem: none) uwtable
define internal noundef float @_ZN2cv6detail12_GLOBAL__N_113diffL2Square3IhEEfRKNS_3MatEiiS5_ii(ptr noundef nonnull readonly align 8 captures(none) dereferenceable(96) %0, i32 noundef %1, i32 noundef %2, ptr noundef nonnull readonly align 8 captures(none) dereferenceable(96) %3, i32 noundef %4, i32 noundef %5) unnamed_addr #12 {
  %7 = getelementptr inbounds nuw i8, ptr %0, i64 16
  %8 = load ptr, ptr %7, align 8, !tbaa !77
  %9 = getelementptr inbounds nuw i8, ptr %0, i64 72
  %10 = load ptr, ptr %9, align 8, !tbaa !83
  %11 = load i64, ptr %10, align 8, !tbaa !84
  %12 = sext i32 %1 to i64
  %13 = mul i64 %11, %12
  %14 = getelementptr inbounds nuw i8, ptr %8, i64 %13
  %15 = getelementptr inbounds nuw i8, ptr %3, i64 16
  %16 = load ptr, ptr %15, align 8, !tbaa !77
  %17 = getelementptr inbounds nuw i8, ptr %3, i64 72
  %18 = load ptr, ptr %17, align 8, !tbaa !83
  %19 = load i64, ptr %18, align 8, !tbaa !84
  %20 = sext i32 %4 to i64
  %21 = mul i64 %19, %20
  %22 = getelementptr inbounds nuw i8, ptr %16, i64 %21
  %23 = mul nsw i32 %2, 3
  %24 = sext i32 %23 to i64
  %25 = getelementptr inbounds i8, ptr %14, i64 %24
  %26 = load i8, ptr %25, align 1, !tbaa !85
  %27 = zext i8 %26 to i32
  %28 = mul nsw i32 %5, 3
  %29 = sext i32 %28 to i64
  %30 = getelementptr inbounds i8, ptr %22, i64 %29
  %31 = load i8, ptr %30, align 1, !tbaa !85
  %32 = zext i8 %31 to i32
  %33 = sub nsw i32 %27, %32
  %34 = mul nsw i32 %33, %33
  %35 = getelementptr i8, ptr %25, i64 1
  %36 = load i8, ptr %35, align 1, !tbaa !85
  %37 = zext i8 %36 to i32
  %38 = getelementptr i8, ptr %30, i64 1
  %39 = load i8, ptr %38, align 1, !tbaa !85
  %40 = zext i8 %39 to i32
  %41 = sub nsw i32 %37, %40
  %42 = mul nsw i32 %41, %41
  %43 = add nuw nsw i32 %42, %34
  %44 = getelementptr i8, ptr %25, i64 2
  %45 = load i8, ptr %44, align 1, !tbaa !85
  %46 = zext i8 %45 to i32
  %47 = getelementptr i8, ptr %30, i64 2
  %48 = load i8, ptr %47, align 1, !tbaa !85
  %49 = zext i8 %48 to i32
  %50 = sub nsw i32 %46, %49
  %51 = mul nsw i32 %50, %50
  %52 = add nuw nsw i32 %43, %51
  %53 = uitofp nneg i32 %52 to float
  ret float %53
}